; Function Attrs: mustprogress uwtable
define noundef zeroext i1 @_ZN3net11QuicSession11ShouldYieldEj(ptr noundef nonnull align 8 dereferenceable(2044) %0, i32 noundef %1) local_unnamed_addr #0 align 2 {
  %3 = getelementptr inbounds nuw i8, ptr %0, i64 2040
  %4 = load i32, ptr %3, align 8, !tbaa !216
  %5 = icmp eq i32 %1, %4
  br i1 %5, label %_ZNK3net20QuicWriteBlockedList11ShouldYieldEj.exit, label %6

6:                                                ; preds = %2
  %7 = getelementptr inbounds nuw i8, ptr %0, i64 1056
  %8 = icmp eq i32 %1, 1
  br i1 %8, label %_ZNK3net20QuicWriteBlockedList11ShouldYieldEj.exit, label %9

9:                                                ; preds = %6
  %10 = getelementptr inbounds nuw i8, ptr %0, i64 1897
  %11 = load i8, ptr %10, align 1, !tbaa !286, !range !256, !noundef !257
  %12 = trunc nuw i8 %11 to i1
  br i1 %12, label %_ZNK3net20QuicWriteBlockedList11ShouldYieldEj.exit, label %13

13:                                               ; preds = %9
  %14 = icmp eq i32 %1, 3
  br i1 %14, label %_ZNK3net20QuicWriteBlockedList11ShouldYieldEj.exit, label %15

15:                                               ; preds = %13
  %16 = getelementptr inbounds nuw i8, ptr %0, i64 1898
  %17 = load i8, ptr %16, align 2, !tbaa !287, !range !256, !noundef !257
  %18 = trunc nuw i8 %17 to i1
  br i1 %18, label %_ZNK3net20QuicWriteBlockedList11ShouldYieldEj.exit, label %19

19:                                               ; preds = %15
  %20 = tail call noundef zeroext i1 @_ZNK3net22PriorityWriteSchedulerIjE11ShouldYieldEj(ptr noundef nonnull align 8 dereferenceable(843) %7, i32 noundef %1)
  br label %_ZNK3net20QuicWriteBlockedList11ShouldYieldEj.exit

_ZNK3net20QuicWriteBlockedList11ShouldYieldEj.exit: ; preds = %19, %15, %13, %9, %6, %2
  %.0 = phi i1 [ false, %2 ], [ %20, %19 ], [ false, %6 ], [ true, %9 ], [ false, %13 ], [ true, %15 ]
  ret i1 %.0
}